; Function Attrs: nounwind uwtable
define dso_local range(i32 0, 2) i32 @path_inside_repo(ptr noundef %0, ptr noundef %1) local_unnamed_addr #0 {
  %.not = icmp eq ptr %0, null
  br i1 %.not, label %.split7, label %.split

.split7:                                          ; preds = %2
  %3 = tail call ptr @prefix_path_gently(ptr noundef null, i32 noundef 0, ptr noundef null, ptr noundef %1)
  br label %7

.split:                                           ; preds = %2
  %4 = tail call i64 @strlen(ptr noundef nonnull dereferenceable(1) %0) #24
  %5 = trunc i64 %4 to i32
  %6 = tail call ptr @prefix_path_gently(ptr noundef nonnull %0, i32 noundef %5, ptr noundef null, ptr noundef %1)
  br label %7

7:                                                ; preds = %.split7, %.split
  %phi.call = phi ptr [ %6, %.split ], [ %3, %.split7 ]
  %.not9 = icmp eq ptr %phi.call, null
  br i1 %.not9, label %9, label %8

8:                                                ; preds = %7
  tail call void @free(ptr noundef nonnull %phi.call) #25
  br label %9

9:                                                ; preds = %7, %8
  %.0 = phi i32 [ 1, %8 ], [ 0, %7 ]
  ret i32 %.0
}